target datalayout = "e-m:e-p270:32:32-p271:32:32-p272:64:64-i64:64-i128:128-f80:128-n8:16:32:64-S128"
target triple = "x86_64-pc-linux-gnu"

@libctx = internal global ptr null, align 8
@.str.14 = private unnamed_addr constant [30 x i8] c"../openssl/test/quicapitest.c\00", align 1
@.str.153 = private unnamed_addr constant [62 x i8] c"ctx = SSL_CTX_new_ex(libctx, NULL, OSSL_QUIC_client_method())\00", align 1
@.str.155 = private unnamed_addr constant [22 x i8] c"SRTP_AEAD_AES_128_GCM\00", align 1
@.str.157 = private unnamed_addr constant [182 x i8] c"TLS_AES_128_GCM_SHA256:TLS_AES_256_GCM_SHA384:TLS_CHACHA20_POLY1305_SHA256:TLS_AES_128_CCM_SHA256:TLS_AES_256_CCM_SHA384:TLS_AES_128_CCM_8_SHA256:TLS_SHA256_SHA256:TLS_SHA384_SHA384\00", align 1
@.str.158 = private unnamed_addr constant [19 x i8] c"ssl = SSL_new(ctx)\00", align 1
@.str.159 = private unnamed_addr constant [54 x i8] c"SSL_set_tlsext_use_srtp(ssl, \22SRTP_AEAD_AES_128_GCM\22)\00", align 1
@.str.160 = private unnamed_addr constant [71 x i8] c"SSL_set_ciphersuites(ssl, QUIC_CIPHERSUITES \22:\22 NON_QUIC_CIPHERSUITES)\00", align 1
@.str.161 = private unnamed_addr constant [42 x i8] c"ciphers = SSL_get1_supported_ciphers(ssl)\00", align 1
@.str.162 = private unnamed_addr constant [30 x i8] c"ensure_valid_ciphers(ciphers)\00", align 1
@.str.163 = private unnamed_addr constant [21 x i8] c"forbidden cipher: %s\00", align 1

; Function Attrs: inlinehint nounwind uwtable
define internal ptr @ossl_check_const_SSL_CIPHER_sk_type(ptr noundef %0) #5 {
  %2 = alloca ptr, align 8
  store ptr %0, ptr %2, align 8, !tbaa !30
  %3 = load ptr, ptr %2, align 8, !tbaa !30
  ret ptr %3
}

; Function Attrs: inlinehint nounwind uwtable
define internal ptr @ossl_check_SSL_CIPHER_sk_type(ptr noundef %0) #5 {
  %2 = alloca ptr, align 8
  store ptr %0, ptr %2, align 8, !tbaa !30
  %3 = load ptr, ptr %2, align 8, !tbaa !30
  ret ptr %3
}

; Function Attrs: nounwind uwtable
define internal i32 @ensure_valid_ciphers(ptr noundef %0) #0 {
  %2 = alloca i32, align 4
  %3 = alloca ptr, align 8
  %4 = alloca i64, align 8
  %5 = alloca ptr, align 8
  %6 = alloca i32, align 4
  store ptr %0, ptr %3, align 8, !tbaa !30
  call void @llvm.lifetime.start.p0(i64 8, ptr %4) #8
  store i64 0, ptr %4, align 8, !tbaa !21
  br label %7

7:                                                ; preds = %30, %1
  %8 = load i64, ptr %4, align 8, !tbaa !21
  %9 = load ptr, ptr %3, align 8, !tbaa !30
  %10 = call ptr @ossl_check_const_SSL_CIPHER_sk_type(ptr noundef %9)
  %11 = call i32 @OPENSSL_sk_num(ptr noundef %10)
  %12 = sext i32 %11 to i64
  %13 = icmp ult i64 %8, %12
  br i1 %13, label %14, label %33

14:                                               ; preds = %7
  call void @llvm.lifetime.start.p0(i64 8, ptr %5) #8
  %15 = load ptr, ptr %3, align 8, !tbaa !30
  %16 = call ptr @ossl_check_const_SSL_CIPHER_sk_type(ptr noundef %15)
  %17 = load i64, ptr %4, align 8, !tbaa !21
  %18 = trunc i64 %17 to i32
  %19 = call ptr @OPENSSL_sk_value(ptr noundef %16, i32 noundef %18)
  store ptr %19, ptr %5, align 8, !tbaa !32
  %20 = load ptr, ptr %5, align 8, !tbaa !32
  %21 = call i32 @SSL_CIPHER_get_id(ptr noundef %20)
  switch i32 %21, label %23 [
    i32 50336513, label %22
    i32 50336514, label %22
    i32 50336515, label %22
  ]

22:                                               ; preds = %14, %14, %14
  br label %26

23:                                               ; preds = %14
  %24 = load ptr, ptr %5, align 8, !tbaa !32
  %25 = call ptr @SSL_CIPHER_get_name(ptr noundef %24)
  call void (ptr, i32, ptr, ...) @test_error(ptr noundef @.str.14, i32 noundef 704, ptr noundef @.str.163, ptr noundef %25)
  store i32 0, ptr %2, align 4
  store i32 1, ptr %6, align 4
  br label %27

26:                                               ; preds = %22
  store i32 0, ptr %6, align 4
  br label %27

27:                                               ; preds = %26, %23
  call void @llvm.lifetime.end.p0(i64 8, ptr %5) #8
  %28 = load i32, ptr %6, align 4
  switch i32 %28, label %34 [
    i32 0, label %29
  ]

29:                                               ; preds = %27
  br label %30

30:                                               ; preds = %29
  %31 = load i64, ptr %4, align 8, !tbaa !21
  %32 = add i64 %31, 1
  store i64 %32, ptr %4, align 8, !tbaa !21
  br label %7, !llvm.loop !78

33:                                               ; preds = %7
  store i32 1, ptr %2, align 4
  store i32 1, ptr %6, align 4
  br label %34

34:                                               ; preds = %33, %27
  call void @llvm.lifetime.end.p0(i64 8, ptr %4) #8
  %35 = load i32, ptr %2, align 4
  ret i32 %35
}

; Function Attrs: nounwind uwtable
define internal i32 @test_quic_forbidden_apis() #0 {
  %1 = alloca i32, align 4
  %2 = alloca ptr, align 8
  %3 = alloca ptr, align 8
  %4 = alloca ptr, align 8
  call void @llvm.lifetime.start.p0(i64 4, ptr %1) #8
  store i32 0, ptr %1, align 4, !tbaa !13
  call void @llvm.lifetime.start.p0(i64 8, ptr %2) #8
  store ptr null, ptr %2, align 8, !tbaa !15
  call void @llvm.lifetime.start.p0(i64 8, ptr %3) #8
  store ptr null, ptr %3, align 8, !tbaa !17
  call void @llvm.lifetime.start.p0(i64 8, ptr %4) #8
  store ptr null, ptr %4, align 8, !tbaa !30
  %5 = load ptr, ptr @libctx, align 8, !tbaa !4
  %6 = call ptr @OSSL_QUIC_client_method()
  %7 = call ptr @SSL_CTX_new_ex(ptr noundef %5, ptr noundef null, ptr noundef %6)
  store ptr %7, ptr %2, align 8, !tbaa !15
  %8 = call i32 @test_ptr(ptr noundef @.str.14, i32 noundef 769, ptr noundef @.str.153, ptr noundef %7)
  %9 = icmp ne i32 %8, 0
  br i1 %9, label %11, label %10

10:                                               ; preds = %0
  br label %47

11:                                               ; preds = %0
  %12 = load ptr, ptr %2, align 8, !tbaa !15
  %13 = call ptr @SSL_new(ptr noundef %12)
  store ptr %13, ptr %3, align 8, !tbaa !17
  %14 = call i32 @test_ptr(ptr noundef @.str.14, i32 noundef 772, ptr noundef @.str.158, ptr noundef %13)
  %15 = icmp ne i32 %14, 0
  br i1 %15, label %17, label %16

16:                                               ; preds = %11
  br label %47

17:                                               ; preds = %11
  %18 = load ptr, ptr %3, align 8, !tbaa !17
  %19 = call i32 @SSL_set_tlsext_use_srtp(ptr noundef %18, ptr noundef @.str.155)
  %20 = icmp ne i32 %19, 0
  %21 = zext i1 %20 to i32
  %22 = call i32 @test_true(ptr noundef @.str.14, i32 noundef 777, ptr noundef @.str.159, i32 noundef %21)
  %23 = icmp ne i32 %22, 0
  br i1 %23, label %25, label %24

24:                                               ; preds = %17
  br label %47

25:                                               ; preds = %17
  %26 = load ptr, ptr %3, align 8, !tbaa !17
  %27 = call i32 @SSL_set_ciphersuites(ptr noundef %26, ptr noundef @.str.157)
  %28 = icmp ne i32 %27, 0
  %29 = zext i1 %28 to i32
  %30 = call i32 @test_true(ptr noundef @.str.14, i32 noundef 784, ptr noundef @.str.160, i32 noundef %29)
  %31 = icmp ne i32 %30, 0
  br i1 %31, label %33, label %32

32:                                               ; preds = %25
  br label %47

33:                                               ; preds = %25
  %34 = load ptr, ptr %3, align 8, !tbaa !17
  %35 = call ptr @SSL_get1_supported_ciphers(ptr noundef %34)
  store ptr %35, ptr %4, align 8, !tbaa !30
  %36 = call i32 @test_ptr(ptr noundef @.str.14, i32 noundef 788, ptr noundef @.str.161, ptr noundef %35)
  %37 = icmp ne i32 %36, 0
  br i1 %37, label %38, label %45

38:                                               ; preds = %33
  %39 = load ptr, ptr %4, align 8, !tbaa !30
  %40 = call i32 @ensure_valid_ciphers(ptr noundef %39)
  %41 = icmp ne i32 %40, 0
  %42 = zext i1 %41 to i32
  %43 = call i32 @test_true(ptr noundef @.str.14, i32 noundef 789, ptr noundef @.str.162, i32 noundef %42)
  %44 = icmp ne i32 %43, 0
  br i1 %44, label %46, label %45

45:                                               ; preds = %38, %33
  br label %47

46:                                               ; preds = %38
  store i32 1, ptr %1, align 4, !tbaa !13
  br label %47

47:                                               ; preds = %46, %45, %32, %24, %16, %10
  %48 = load ptr, ptr %4, align 8, !tbaa !30
  %49 = call ptr @ossl_check_SSL_CIPHER_sk_type(ptr noundef %48)
  call void @OPENSSL_sk_free(ptr noundef %49)
  %50 = load ptr, ptr %3, align 8, !tbaa !17
  call void @SSL_free(ptr noundef %50)
  %51 = load ptr, ptr %2, align 8, !tbaa !15
  call void @SSL_CTX_free(ptr noundef %51)
  %52 = load i32, ptr %1, align 4, !tbaa !13
  call void @llvm.lifetime.end.p0(i64 8, ptr %4) #8
  call void @llvm.lifetime.end.p0(i64 8, ptr %3) #8
  call void @llvm.lifetime.end.p0(i64 8, ptr %2) #8
  call void @llvm.lifetime.end.p0(i64 4, ptr %1) #8
  ret i32 %52
}