; Function Attrs: nounwind uwtable
define internal range(i32 0, 2) i32 @test_quic_forbidden_apis() #1 {
  %1 = load ptr, ptr @libctx, align 8, !tbaa !4
  %2 = tail call ptr @OSSL_QUIC_client_method() #10
  %3 = tail call ptr @SSL_CTX_new_ex(ptr noundef %1, ptr noundef null, ptr noundef %2) #10
  %4 = tail call i32 @test_ptr(ptr noundef nonnull @.str.14, i32 noundef 769, ptr noundef nonnull @.str.153, ptr noundef %3) #10
  %.not = icmp eq i32 %4, 0
  br i1 %.not, label %34, label %5

5:                                                ; preds = %0
  %6 = tail call ptr @SSL_new(ptr noundef %3) #10
  %7 = tail call i32 @test_ptr(ptr noundef nonnull @.str.14, i32 noundef 772, ptr noundef nonnull @.str.158, ptr noundef %6) #10
  %.not10 = icmp eq i32 %7, 0
  br i1 %.not10, label %34, label %8

8:                                                ; preds = %5
  %9 = tail call i32 @SSL_set_tlsext_use_srtp(ptr noundef %6, ptr noundef nonnull @.str.155) #10
  %10 = icmp ne i32 %9, 0
  %11 = zext i1 %10 to i32
  %12 = tail call i32 @test_true(ptr noundef nonnull @.str.14, i32 noundef 777, ptr noundef nonnull @.str.159, i32 noundef %11) #10
  %.not11 = icmp eq i32 %12, 0
  br i1 %.not11, label %34, label %13

13:                                               ; preds = %8
  %14 = tail call i32 @SSL_set_ciphersuites(ptr noundef %6, ptr noundef nonnull @.str.157) #10
  %15 = icmp ne i32 %14, 0
  %16 = zext i1 %15 to i32
  %17 = tail call i32 @test_true(ptr noundef nonnull @.str.14, i32 noundef 784, ptr noundef nonnull @.str.160, i32 noundef %16) #10
  %.not12 = icmp eq i32 %17, 0
  br i1 %.not12, label %34, label %18

18:                                               ; preds = %13
  %19 = tail call ptr @SSL_get1_supported_ciphers(ptr noundef %6) #10
  %20 = tail call i32 @test_ptr(ptr noundef nonnull @.str.14, i32 noundef 788, ptr noundef nonnull @.str.161, ptr noundef %19) #10
  %.not13 = icmp eq i32 %20, 0
  br i1 %.not13, label %34, label %21

21:                                               ; preds = %18
  %22 = tail call i32 @OPENSSL_sk_num(ptr noundef %19) #10
  %.not.i = icmp eq i32 %22, 0
  br i1 %.not.i, label %ensure_valid_ciphers.exit, label %.lr.ph.i

23:                                               ; preds = %.lr.ph.i
  %24 = add nuw i64 %.0910.i, 1
  %25 = tail call i32 @OPENSSL_sk_num(ptr noundef %19) #10
  %26 = sext i32 %25 to i64
  %27 = icmp ult i64 %24, %26
  br i1 %27, label %.lr.ph.i, label %ensure_valid_ciphers.exit, !llvm.loop !35

.lr.ph.i:                                         ; preds = %21, %23
  %.0910.i = phi i64 [ %24, %23 ], [ 0, %21 ]
  %28 = trunc i64 %.0910.i to i32
  %29 = tail call ptr @OPENSSL_sk_value(ptr noundef %19, i32 noundef %28) #10
  %30 = tail call i32 @SSL_CIPHER_get_id(ptr noundef %29) #10
  %.off.i = add i32 %30, -50336513
  %switch.i = icmp ult i32 %.off.i, 3
  br i1 %switch.i, label %23, label %.critedge.i

.critedge.i:                                      ; preds = %.lr.ph.i
  %31 = tail call ptr @SSL_CIPHER_get_name(ptr noundef %29) #10
  tail call void (ptr, i32, ptr, ...) @test_error(ptr noundef nonnull @.str.14, i32 noundef 704, ptr noundef nonnull @.str.163, ptr noundef %31) #10
  br label %ensure_valid_ciphers.exit

ensure_valid_ciphers.exit:                        ; preds = %23, %21, %.critedge.i
  %32 = phi i32 [ 0, %.critedge.i ], [ 1, %21 ], [ 1, %23 ]
  %33 = tail call i32 @test_true(ptr noundef nonnull @.str.14, i32 noundef 789, ptr noundef nonnull @.str.162, i32 noundef %32) #10
  %.not14 = icmp ne i32 %33, 0
  %spec.select = zext i1 %.not14 to i32
  br label %34

34:                                               ; preds = %ensure_valid_ciphers.exit, %18, %13, %8, %5, %0
  %.09 = phi i32 [ 0, %18 ], [ 0, %13 ], [ 0, %8 ], [ 0, %5 ], [ 0, %0 ], [ %spec.select, %ensure_valid_ciphers.exit ]
  %.08 = phi ptr [ %6, %18 ], [ %6, %13 ], [ %6, %8 ], [ %6, %5 ], [ null, %0 ], [ %6, %ensure_valid_ciphers.exit ]
  %.0 = phi ptr [ %19, %18 ], [ null, %13 ], [ null, %8 ], [ null, %5 ], [ null, %0 ], [ %19, %ensure_valid_ciphers.exit ]
  tail call void @OPENSSL_sk_free(ptr noundef %.0) #10
  tail call void @SSL_free(ptr noundef %.08) #10
  tail call void @SSL_CTX_free(ptr noundef %3) #10
  ret i32 %.09
}